; Function Attrs: mustprogress uwtable
define hidden noundef zeroext i1 @_ZNK11ast_manager9are_equalEP4exprS1_(ptr noundef nonnull readonly align 8 captures(none) dereferenceable(976) %0, ptr noundef %1, ptr noundef %2) local_unnamed_addr #7 align 2 {
  %4 = icmp eq ptr %1, %2
  br i1 %4, label %_ZNK11ast_manager10get_pluginEi.exit25.thread, label %5

5:                                                ; preds = %3
  %6 = getelementptr inbounds nuw i8, ptr %1, i64 4
  %7 = load i32, ptr %6, align 4
  %8 = and i32 %7, 65535
  %9 = icmp eq i32 %8, 0
  br i1 %9, label %10, label %_ZNK11ast_manager10get_pluginEi.exit25.thread

10:                                               ; preds = %5
  %11 = getelementptr inbounds nuw i8, ptr %2, i64 4
  %12 = load i32, ptr %11, align 4
  %13 = and i32 %12, 65535
  %14 = icmp eq i32 %13, 0
  br i1 %14, label %15, label %_ZNK11ast_manager10get_pluginEi.exit25.thread

15:                                               ; preds = %10
  %16 = getelementptr inbounds nuw i8, ptr %1, i64 16
  %17 = load ptr, ptr %16, align 8, !tbaa !118
  %18 = getelementptr inbounds nuw i8, ptr %17, i64 24
  %19 = load ptr, ptr %18, align 8, !tbaa !111
  %20 = icmp eq ptr %19, null
  br i1 %20, label %_ZNK3app13get_family_idEv.exit, label %21

21:                                               ; preds = %15
  %22 = load i32, ptr %19, align 8, !tbaa !96
  br label %_ZNK3app13get_family_idEv.exit

_ZNK3app13get_family_idEv.exit:                   ; preds = %15, %21
  %23 = phi i32 [ %22, %21 ], [ -1, %15 ]
  %24 = getelementptr inbounds nuw i8, ptr %0, i64 704
  %25 = load ptr, ptr %24, align 8, !tbaa !33
  %26 = icmp eq ptr %25, null
  br i1 %26, label %_ZNK11ast_manager10get_pluginEi.exit.thread, label %_ZNK6vectorIP11decl_pluginLb0EjE3getEjRKS1_.exit.i

_ZNK6vectorIP11decl_pluginLb0EjE3getEjRKS1_.exit.i: ; preds = %_ZNK3app13get_family_idEv.exit
  %27 = getelementptr inbounds i8, ptr %25, i64 -4
  %28 = load i32, ptr %27, align 4, !tbaa !24
  %.not.i.i = icmp ult i32 %23, %28
  br i1 %.not.i.i, label %_ZNK11ast_manager10get_pluginEi.exit, label %_ZNK11ast_manager10get_pluginEi.exit.thread

_ZNK11ast_manager10get_pluginEi.exit:             ; preds = %_ZNK6vectorIP11decl_pluginLb0EjE3getEjRKS1_.exit.i
  %29 = zext i32 %23 to i64
  %30 = getelementptr inbounds nuw ptr, ptr %25, i64 %29
  %.then.val.i = load ptr, ptr %30, align 8, !tbaa !37
  %.not = icmp eq ptr %.then.val.i, null
  br i1 %.not, label %_ZNK11ast_manager10get_pluginEi.exit.thread, label %_ZNK11ast_manager10get_pluginEi.exit25.thread29

_ZNK11ast_manager10get_pluginEi.exit.thread:      ; preds = %_ZNK3app13get_family_idEv.exit, %_ZNK6vectorIP11decl_pluginLb0EjE3getEjRKS1_.exit.i, %_ZNK11ast_manager10get_pluginEi.exit
  %31 = getelementptr inbounds nuw i8, ptr %2, i64 16
  %32 = load ptr, ptr %31, align 8, !tbaa !118
  %33 = getelementptr inbounds nuw i8, ptr %32, i64 24
  %34 = load ptr, ptr %33, align 8, !tbaa !111
  %35 = icmp eq ptr %34, null
  br i1 %35, label %_ZNK3app13get_family_idEv.exit20, label %36

36:                                               ; preds = %_ZNK11ast_manager10get_pluginEi.exit.thread
  %37 = load i32, ptr %34, align 8, !tbaa !96
  br label %_ZNK3app13get_family_idEv.exit20

_ZNK3app13get_family_idEv.exit20:                 ; preds = %_ZNK11ast_manager10get_pluginEi.exit.thread, %36
  %38 = phi i32 [ %37, %36 ], [ -1, %_ZNK11ast_manager10get_pluginEi.exit.thread ]
  br i1 %26, label %_ZNK11ast_manager10get_pluginEi.exit25.thread, label %_ZNK6vectorIP11decl_pluginLb0EjE3getEjRKS1_.exit.i21

_ZNK6vectorIP11decl_pluginLb0EjE3getEjRKS1_.exit.i21: ; preds = %_ZNK3app13get_family_idEv.exit20
  %39 = getelementptr inbounds i8, ptr %25, i64 -4
  %40 = load i32, ptr %39, align 4, !tbaa !24
  %.not.i.i22 = icmp ult i32 %38, %40
  br i1 %.not.i.i22, label %_ZNK11ast_manager10get_pluginEi.exit25, label %_ZNK11ast_manager10get_pluginEi.exit25.thread

_ZNK11ast_manager10get_pluginEi.exit25:           ; preds = %_ZNK6vectorIP11decl_pluginLb0EjE3getEjRKS1_.exit.i21
  %41 = zext i32 %38 to i64
  %42 = getelementptr inbounds nuw ptr, ptr %25, i64 %41
  %.then.val.i24 = load ptr, ptr %42, align 8, !tbaa !37
  %.not19 = icmp eq ptr %.then.val.i24, null
  br i1 %.not19, label %_ZNK11ast_manager10get_pluginEi.exit25.thread, label %_ZNK11ast_manager10get_pluginEi.exit25.thread29

_ZNK11ast_manager10get_pluginEi.exit25.thread29:  ; preds = %_ZNK11ast_manager10get_pluginEi.exit, %_ZNK11ast_manager10get_pluginEi.exit25
  %.032 = phi ptr [ %.then.val.i24, %_ZNK11ast_manager10get_pluginEi.exit25 ], [ %.then.val.i, %_ZNK11ast_manager10get_pluginEi.exit ]
  %43 = load ptr, ptr %.032, align 8, !tbaa !39
  %44 = getelementptr inbounds nuw i8, ptr %43, i64 96
  %45 = load ptr, ptr %44, align 8
  %46 = tail call noundef zeroext i1 %45(ptr noundef nonnull align 8 dereferenceable(20) %.032, ptr noundef nonnull %1, ptr noundef nonnull %2)
  br label %_ZNK11ast_manager10get_pluginEi.exit25.thread

_ZNK11ast_manager10get_pluginEi.exit25.thread:    ; preds = %_ZNK3app13get_family_idEv.exit20, %_ZNK6vectorIP11decl_pluginLb0EjE3getEjRKS1_.exit.i21, %5, %10, %_ZNK11ast_manager10get_pluginEi.exit25, %_ZNK11ast_manager10get_pluginEi.exit25.thread29, %3
  %.015 = phi i1 [ true, %3 ], [ false, %_ZNK11ast_manager10get_pluginEi.exit25 ], [ %46, %_ZNK11ast_manager10get_pluginEi.exit25.thread29 ], [ false, %10 ], [ false, %5 ], [ false, %_ZNK6vectorIP11decl_pluginLb0EjE3getEjRKS1_.exit.i21 ], [ false, %_ZNK3app13get_family_idEv.exit20 ]
  ret i1 %.015
}